target datalayout = "e-m:e-p270:32:32-p271:32:32-p272:64:64-i64:64-i128:128-f80:128-n8:16:32:64-S128"
target triple = "x86_64-pc-linux-gnu"

%struct._object = type { %union.anon, ptr }
%union.anon = type { i64 }
%struct.PyVarObject = type { %struct._object, i64 }
%struct._err_stackitem = type { ptr, ptr }
%union._PyStackRef = type { i64 }
%struct._PyGenObject = type { %struct._object, ptr, ptr, ptr, %struct._err_stackitem, ptr, i8, i8, i8, i8, %struct._PyInterpreterFrame }
%struct._PyInterpreterFrame = type { %union._PyStackRef, ptr, %union._PyStackRef, ptr, ptr, ptr, ptr, ptr, ptr, i16, i8, i8, [1 x %union._PyStackRef] }
%struct.anon = type { i32, i32 }
%struct._PyAsyncGenObject = type { %struct._object, ptr, ptr, ptr, %struct._err_stackitem, ptr, i8, i8, i8, i8, %struct._PyInterpreterFrame }
%struct.PyCodeObject = type { %struct.PyVarObject, ptr, ptr, ptr, i32, i32, i32, i32, i32, i32, i32, i32, i32, i32, i32, i32, ptr, ptr, ptr, ptr, ptr, ptr, ptr, ptr, ptr, i64, ptr, i64, i32, ptr, [1 x i8] }

; Function Attrs: inlinehint nounwind uwtable
define internal ptr @_PyFrame_GetCode(ptr noundef %0) #2 {
  %2 = alloca ptr, align 8
  %3 = alloca ptr, align 8
  store ptr %0, ptr %2, align 8, !tbaa !37
  call void @llvm.lifetime.start.p0(i64 8, ptr %3) #7
  %4 = load ptr, ptr %2, align 8, !tbaa !37
  %5 = getelementptr inbounds nuw %struct._PyInterpreterFrame, ptr %4, i32 0, i32 0
  %6 = load i64, ptr %5, align 8, !tbaa !13
  %7 = inttoptr i64 %6 to ptr
  store ptr %7, ptr %3, align 8, !tbaa !11
  %8 = load ptr, ptr %3, align 8, !tbaa !11
  call void @llvm.lifetime.end.p0(i64 8, ptr %3) #7
  ret ptr %8
}

; Function Attrs: alwaysinline nounwind uwtable
define internal i32 @_Py_IsImmortal(ptr noundef %0) #3 {
  %2 = alloca ptr, align 8
  store ptr %0, ptr %2, align 8, !tbaa !11
  %3 = load ptr, ptr %2, align 8, !tbaa !11
  %4 = getelementptr inbounds nuw %struct._object, ptr %3, i32 0, i32 0
  %5 = getelementptr inbounds nuw %struct.anon, ptr %4, i32 0, i32 0
  %6 = load i32, ptr %5, align 8, !tbaa !13
  %7 = icmp slt i32 %6, 0
  %8 = zext i1 %7 to i32
  ret i32 %8
}

; Function Attrs: inlinehint nounwind uwtable
define internal ptr @_Py_TYPE(ptr noundef %0) #2 {
  %2 = alloca ptr, align 8
  store ptr %0, ptr %2, align 8, !tbaa !11
  %3 = load ptr, ptr %2, align 8, !tbaa !11
  %4 = getelementptr inbounds nuw %struct._object, ptr %3, i32 0, i32 1
  %5 = load ptr, ptr %4, align 8, !tbaa !92
  ret ptr %5
}

; Function Attrs: inlinehint nounwind uwtable
define internal ptr @_PyGen_GetCode(ptr noundef %0) #2 {
  %2 = alloca ptr, align 8
  store ptr %0, ptr %2, align 8, !tbaa !4
  %3 = load ptr, ptr %2, align 8, !tbaa !4
  %4 = getelementptr inbounds nuw %struct._PyGenObject, ptr %3, i32 0, i32 10
  %5 = call ptr @_PyFrame_GetCode(ptr noundef %4)
  ret ptr %5
}

; Function Attrs: alwaysinline nounwind uwtable
define internal void @Py_DECREF(ptr noundef %0) #3 {
  %2 = alloca ptr, align 8
  store ptr %0, ptr %2, align 8, !tbaa !11
  %3 = load ptr, ptr %2, align 8, !tbaa !11
  %4 = call i32 @_Py_IsImmortal(ptr noundef %3)
  %5 = icmp ne i32 %4, 0
  br i1 %5, label %6, label %7

6:                                                ; preds = %1
  br label %16

7:                                                ; preds = %1
  %8 = load ptr, ptr %2, align 8, !tbaa !11
  %9 = getelementptr inbounds nuw %struct._object, ptr %8, i32 0, i32 0
  %10 = getelementptr inbounds nuw %struct.anon, ptr %9, i32 0, i32 0
  %11 = load i32, ptr %10, align 8, !tbaa !13
  %12 = add i32 %11, -1
  store i32 %12, ptr %10, align 8, !tbaa !13
  %13 = icmp eq i32 %12, 0
  br i1 %13, label %14, label %16

14:                                               ; preds = %7
  %15 = load ptr, ptr %2, align 8, !tbaa !11
  call void @_Py_Dealloc(ptr noundef %15)
  br label %16

16:                                               ; preds = %6, %14, %7
  ret void
}

; Function Attrs: inlinehint nounwind uwtable
define internal i32 @Py_IS_TYPE(ptr noundef %0, ptr noundef %1) #2 {
  %3 = alloca ptr, align 8
  %4 = alloca ptr, align 8
  store ptr %0, ptr %3, align 8, !tbaa !11
  store ptr %1, ptr %4, align 8, !tbaa !36
  %5 = load ptr, ptr %3, align 8, !tbaa !11
  %6 = call ptr @_Py_TYPE(ptr noundef %5)
  %7 = load ptr, ptr %4, align 8, !tbaa !36
  %8 = icmp eq ptr %6, %7
  %9 = zext i1 %8 to i32
  ret i32 %9
}

; Function Attrs: nounwind uwtable
define hidden void @_PyGen_Finalize(ptr noundef %0) #0 {
  %2 = alloca ptr, align 8
  %3 = alloca ptr, align 8
  %4 = alloca i32, align 4
  %5 = alloca ptr, align 8
  %6 = alloca ptr, align 8
  %7 = alloca ptr, align 8
  %8 = alloca ptr, align 8
  %9 = alloca ptr, align 8
  %10 = alloca ptr, align 8
  store ptr %0, ptr %2, align 8, !tbaa !11
  call void @llvm.lifetime.start.p0(i64 8, ptr %3) #7
  %11 = load ptr, ptr %2, align 8, !tbaa !11
  store ptr %11, ptr %3, align 8, !tbaa !4
  %12 = load ptr, ptr %3, align 8, !tbaa !4
  %13 = getelementptr inbounds nuw %struct._PyGenObject, ptr %12, i32 0, i32 9
  %14 = load i8, ptr %13, align 1, !tbaa !16
  %15 = sext i8 %14 to i32
  %16 = icmp sge i32 %15, 1
  br i1 %16, label %17, label %18

17:                                               ; preds = %1
  store i32 1, ptr %4, align 4
  br label %83

18:                                               ; preds = %1
  %19 = load ptr, ptr %2, align 8, !tbaa !11
  %20 = call i32 @Py_IS_TYPE(ptr noundef %19, ptr noundef @PyAsyncGen_Type)
  %21 = icmp ne i32 %20, 0
  br i1 %21, label %22, label %51

22:                                               ; preds = %18
  call void @llvm.lifetime.start.p0(i64 8, ptr %5) #7
  %23 = load ptr, ptr %2, align 8, !tbaa !11
  store ptr %23, ptr %5, align 8, !tbaa !27
  call void @llvm.lifetime.start.p0(i64 8, ptr %6) #7
  %24 = load ptr, ptr %5, align 8, !tbaa !27
  %25 = getelementptr inbounds nuw %struct._PyAsyncGenObject, ptr %24, i32 0, i32 5
  %26 = load ptr, ptr %25, align 8, !tbaa !29
  store ptr %26, ptr %6, align 8, !tbaa !11
  %27 = load ptr, ptr %6, align 8, !tbaa !11
  %28 = icmp ne ptr %27, null
  br i1 %28, label %29, label %47

29:                                               ; preds = %22
  %30 = load ptr, ptr %5, align 8, !tbaa !27
  %31 = getelementptr inbounds nuw %struct._PyAsyncGenObject, ptr %30, i32 0, i32 7
  %32 = load i8, ptr %31, align 1, !tbaa !31
  %33 = icmp ne i8 %32, 0
  br i1 %33, label %47, label %34

34:                                               ; preds = %29
  call void @llvm.lifetime.start.p0(i64 8, ptr %7) #7
  %35 = call ptr @PyErr_GetRaisedException()
  store ptr %35, ptr %7, align 8, !tbaa !11
  call void @llvm.lifetime.start.p0(i64 8, ptr %8) #7
  %36 = load ptr, ptr %6, align 8, !tbaa !11
  %37 = load ptr, ptr %2, align 8, !tbaa !11
  %38 = call ptr @PyObject_CallOneArg(ptr noundef %36, ptr noundef %37)
  store ptr %38, ptr %8, align 8, !tbaa !11
  %39 = load ptr, ptr %8, align 8, !tbaa !11
  %40 = icmp eq ptr %39, null
  br i1 %40, label %41, label %43

41:                                               ; preds = %34
  %42 = load ptr, ptr %2, align 8, !tbaa !11
  call void @PyErr_WriteUnraisable(ptr noundef %42)
  br label %45

43:                                               ; preds = %34
  %44 = load ptr, ptr %8, align 8, !tbaa !11
  call void @Py_DECREF(ptr noundef %44)
  br label %45

45:                                               ; preds = %43, %41
  %46 = load ptr, ptr %7, align 8, !tbaa !11
  call void @PyErr_SetRaisedException(ptr noundef %46)
  store i32 1, ptr %4, align 4
  call void @llvm.lifetime.end.p0(i64 8, ptr %8) #7
  call void @llvm.lifetime.end.p0(i64 8, ptr %7) #7
  br label %48

47:                                               ; preds = %29, %22
  store i32 0, ptr %4, align 4
  br label %48

48:                                               ; preds = %47, %45
  call void @llvm.lifetime.end.p0(i64 8, ptr %6) #7
  call void @llvm.lifetime.end.p0(i64 8, ptr %5) #7
  %49 = load i32, ptr %4, align 4
  switch i32 %49, label %83 [
    i32 0, label %50
  ]

50:                                               ; preds = %48
  br label %51

51:                                               ; preds = %50, %18
  call void @llvm.lifetime.start.p0(i64 8, ptr %9) #7
  %52 = call ptr @PyErr_GetRaisedException()
  store ptr %52, ptr %9, align 8, !tbaa !11
  %53 = load ptr, ptr %3, align 8, !tbaa !4
  %54 = call ptr @_PyGen_GetCode(ptr noundef %53)
  %55 = getelementptr inbounds nuw %struct.PyCodeObject, ptr %54, i32 0, i32 4
  %56 = load i32, ptr %55, align 8, !tbaa !32
  %57 = and i32 %56, 128
  %58 = icmp ne i32 %57, 0
  br i1 %58, label %59, label %67

59:                                               ; preds = %51
  %60 = load ptr, ptr %3, align 8, !tbaa !4
  %61 = getelementptr inbounds nuw %struct._PyGenObject, ptr %60, i32 0, i32 9
  %62 = load i8, ptr %61, align 1, !tbaa !16
  %63 = sext i8 %62 to i32
  %64 = icmp eq i32 %63, -3
  br i1 %64, label %65, label %67

65:                                               ; preds = %59
  %66 = load ptr, ptr %3, align 8, !tbaa !4
  call void @_PyErr_WarnUnawaitedCoroutine(ptr noundef %66)
  br label %81

67:                                               ; preds = %59, %51
  call void @llvm.lifetime.start.p0(i64 8, ptr %10) #7
  %68 = load ptr, ptr %3, align 8, !tbaa !4
  %69 = call ptr @gen_close(ptr noundef %68, ptr noundef null)
  store ptr %69, ptr %10, align 8, !tbaa !11
  %70 = load ptr, ptr %10, align 8, !tbaa !11
  %71 = icmp eq ptr %70, null
  br i1 %71, label %72, label %78

72:                                               ; preds = %67
  %73 = call ptr @PyErr_Occurred()
  %74 = icmp ne ptr %73, null
  br i1 %74, label %75, label %77

75:                                               ; preds = %72
  %76 = load ptr, ptr %2, align 8, !tbaa !11
  call void @PyErr_WriteUnraisable(ptr noundef %76)
  br label %77

77:                                               ; preds = %75, %72
  br label %80

78:                                               ; preds = %67
  %79 = load ptr, ptr %10, align 8, !tbaa !11
  call void @Py_DECREF(ptr noundef %79)
  br label %80

80:                                               ; preds = %78, %77
  call void @llvm.lifetime.end.p0(i64 8, ptr %10) #7
  br label %81

81:                                               ; preds = %80, %65
  %82 = load ptr, ptr %9, align 8, !tbaa !11
  call void @PyErr_SetRaisedException(ptr noundef %82)
  call void @llvm.lifetime.end.p0(i64 8, ptr %9) #7
  store i32 0, ptr %4, align 4
  br label %83

83:                                               ; preds = %81, %48, %17
  call void @llvm.lifetime.end.p0(i64 8, ptr %3) #7
  %84 = load i32, ptr %4, align 4
  switch i32 %84, label %86 [
    i32 0, label %85
    i32 1, label %85
  ]

85:                                               ; preds = %83, %83
  ret void

86:                                               ; preds = %83
  unreachable
}