; Function Attrs: nounwind uwtable
define hidden void @_PyGen_Finalize(ptr noundef %0) #2 {
  %2 = getelementptr inbounds nuw i8, ptr %0, i64 67
  %3 = load i8, ptr %2, align 1, !tbaa !7
  %4 = icmp sgt i8 %3, 0
  br i1 %4, label %47, label %5

5:                                                ; preds = %1
  %6 = getelementptr i8, ptr %0, i64 8
  %.val31 = load ptr, ptr %6, align 8, !tbaa !20
  %.not = icmp eq ptr %.val31, @PyAsyncGen_Type
  br i1 %.not, label %7, label %24

7:                                                ; preds = %5
  %8 = getelementptr inbounds nuw i8, ptr %0, i64 56
  %9 = load ptr, ptr %8, align 8, !tbaa !21
  %.not24 = icmp eq ptr %9, null
  br i1 %.not24, label %24, label %10

10:                                               ; preds = %7
  %11 = getelementptr inbounds nuw i8, ptr %0, i64 65
  %12 = load i8, ptr %11, align 1, !tbaa !23
  %.not25 = icmp eq i8 %12, 0
  br i1 %.not25, label %13, label %24

13:                                               ; preds = %10
  %14 = tail call ptr @PyErr_GetRaisedException() #8
  %15 = tail call ptr @PyObject_CallOneArg(ptr noundef nonnull %9, ptr noundef nonnull %0) #8
  %16 = icmp eq ptr %15, null
  br i1 %16, label %17, label %18

17:                                               ; preds = %13
  tail call void @PyErr_WriteUnraisable(ptr noundef nonnull %0) #8
  br label %.sink.split

18:                                               ; preds = %13
  %19 = load i32, ptr %15, align 8, !tbaa !4
  %.not.i = icmp sgt i32 %19, -1
  br i1 %.not.i, label %20, label %.sink.split

20:                                               ; preds = %18
  %21 = add nsw i32 %19, -1
  store i32 %21, ptr %15, align 8, !tbaa !4
  %22 = icmp eq i32 %21, 0
  br i1 %22, label %23, label %.sink.split

23:                                               ; preds = %20
  tail call void @_Py_Dealloc(ptr noundef nonnull %15) #8
  br label %.sink.split

24:                                               ; preds = %10, %7, %5
  %25 = tail call ptr @PyErr_GetRaisedException() #8
  %26 = getelementptr i8, ptr %0, i64 72
  %.val = load i64, ptr %26, align 8, !tbaa !4
  %27 = inttoptr i64 %.val to ptr
  %28 = getelementptr inbounds nuw i8, ptr %27, i64 48
  %29 = load i32, ptr %28, align 8, !tbaa !24
  %30 = and i32 %29, 128
  %.not26 = icmp eq i32 %30, 0
  br i1 %.not26, label %35, label %31

31:                                               ; preds = %24
  %32 = load i8, ptr %2, align 1, !tbaa !7
  %33 = icmp eq i8 %32, -3
  br i1 %33, label %34, label %35

34:                                               ; preds = %31
  tail call void @_PyErr_WarnUnawaitedCoroutine(ptr noundef nonnull %0) #8
  br label %.sink.split

35:                                               ; preds = %31, %24
  %36 = tail call ptr @gen_close(ptr noundef nonnull %0, ptr poison)
  %37 = icmp eq ptr %36, null
  br i1 %37, label %38, label %41

38:                                               ; preds = %35
  %39 = tail call ptr @PyErr_Occurred() #8
  %.not27 = icmp eq ptr %39, null
  br i1 %.not27, label %.sink.split, label %40

40:                                               ; preds = %38
  tail call void @PyErr_WriteUnraisable(ptr noundef nonnull %0) #8
  br label %.sink.split

41:                                               ; preds = %35
  %42 = load i32, ptr %36, align 8, !tbaa !4
  %.not.i28 = icmp sgt i32 %42, -1
  br i1 %.not.i28, label %43, label %.sink.split

43:                                               ; preds = %41
  %44 = add nsw i32 %42, -1
  store i32 %44, ptr %36, align 8, !tbaa !4
  %45 = icmp eq i32 %44, 0
  br i1 %45, label %46, label %.sink.split

46:                                               ; preds = %43
  tail call void @_Py_Dealloc(ptr noundef nonnull %36) #8
  br label %.sink.split

.sink.split:                                      ; preds = %34, %38, %40, %41, %43, %46, %17, %18, %20, %23
  %.sink = phi ptr [ %14, %23 ], [ %14, %20 ], [ %14, %18 ], [ %14, %17 ], [ %25, %46 ], [ %25, %43 ], [ %25, %41 ], [ %25, %40 ], [ %25, %38 ], [ %25, %34 ]
  tail call void @PyErr_SetRaisedException(ptr noundef %.sink) #8
  br label %47

47:                                               ; preds = %.sink.split, %1
  ret void
}